target datalayout = "e-m:e-p270:32:32-p271:32:32-p272:64:64-i64:64-i128:128-f80:128-n8:16:32:64-S128"
target triple = "x86_64-pc-linux-gnu"

%"class.std::optional.1" = type { %"struct.std::_Optional_base.2" }
%"struct.std::_Optional_base.2" = type { %"struct.std::_Optional_payload.4" }
%"struct.std::_Optional_payload.4" = type { %"struct.std::_Optional_payload.base", [7 x i8] }
%"struct.std::_Optional_payload.base" = type { %"struct.std::_Optional_payload_base.base" }
%"struct.std::_Optional_payload_base.base" = type <{ %"union.std::_Optional_payload_base<nix::StorePath>::_Storage", i8 }>
%"union.std::_Optional_payload_base<nix::StorePath>::_Storage" = type { %"class.nix::StorePath" }
%"class.nix::StorePath" = type { %"class.std::__cxx11::basic_string" }
%"class.std::__cxx11::basic_string" = type { %"struct.std::__cxx11::basic_string<char>::_Alloc_hider", i64, %union.anon }
%"struct.std::__cxx11::basic_string<char>::_Alloc_hider" = type { ptr }
%union.anon = type { i64, [8 x i8] }
%"class.std::allocator" = type { i8 }
%"struct.std::_Optional_payload_base.6" = type <{ %"union.std::_Optional_payload_base<nix::StorePath>::_Storage", i8, [7 x i8] }>

@_ZTIN3nix5ErrorE = linkonce_odr constant { ptr, ptr, ptr } { ptr getelementptr inbounds (ptr, ptr @_ZTVN10__cxxabiv120__si_class_type_infoE, i64 2), ptr @_ZTSN3nix5ErrorE, ptr @_ZTIN3nix9BaseErrorE }, comdat, align 8
@.str.14 = private unnamed_addr constant [50 x i8] c"derivation does not contain a 'drvPath' attribute\00", align 1

; Function Attrs: mustprogress nounwind uwtable
define linkonce_odr noundef nonnull align 8 dereferenceable(32) ptr @_ZNSt22_Optional_payload_baseIN3nix9StorePathEE6_M_getEv(ptr noundef nonnull align 8 dereferenceable(33) %0) #2 comdat align 2 {
  %2 = alloca ptr, align 8
  store ptr %0, ptr %2, align 8
  %3 = load ptr, ptr %2, align 8
  %4 = getelementptr inbounds %"struct.std::_Optional_payload_base.6", ptr %3, i32 0, i32 0
  ret ptr %4
}

; Function Attrs: mustprogress nounwind uwtable
define linkonce_odr noundef nonnull align 8 dereferenceable(32) ptr @_ZNSt19_Optional_base_implIN3nix9StorePathESt14_Optional_baseIS1_Lb0ELb0EEE6_M_getEv(ptr noundef nonnull align 1 dereferenceable(1) %0) #2 comdat align 2 {
  %2 = alloca ptr, align 8
  store ptr %0, ptr %2, align 8
  %3 = load ptr, ptr %2, align 8
  br label %4

4:                                                ; preds = %1
  br label %5

5:                                                ; preds = %4
  br label %6

6:                                                ; preds = %5
  %7 = getelementptr inbounds %"struct.std::_Optional_base.2", ptr %3, i32 0, i32 0
  %8 = call noundef nonnull align 8 dereferenceable(32) ptr @_ZNSt22_Optional_payload_baseIN3nix9StorePathEE6_M_getEv(ptr noundef nonnull align 8 dereferenceable(33) %7) #1
  ret ptr %8
}

; Function Attrs: mustprogress nounwind uwtable
define linkonce_odr noundef zeroext i1 @_ZNKSt19_Optional_base_implIN3nix9StorePathESt14_Optional_baseIS1_Lb0ELb0EEE13_M_is_engagedEv(ptr noundef nonnull align 1 dereferenceable(1) %0) #2 comdat align 2 {
  %2 = alloca ptr, align 8
  store ptr %0, ptr %2, align 8
  %3 = load ptr, ptr %2, align 8
  %4 = getelementptr inbounds %"struct.std::_Optional_base.2", ptr %3, i32 0, i32 0
  %5 = getelementptr inbounds %"struct.std::_Optional_payload_base.6", ptr %4, i32 0, i32 1
  %6 = load i8, ptr %5, align 8
  %7 = trunc i8 %6 to i1
  ret i1 %7
}

; Function Attrs: mustprogress uwtable
define linkonce_odr void @_ZN3nix9StorePathC2ERKS0_(ptr noundef nonnull align 8 dereferenceable(32) %0, ptr noundef nonnull align 8 dereferenceable(32) %1) unnamed_addr #5 comdat align 2 {
  %3 = alloca ptr, align 8
  %4 = alloca ptr, align 8
  store ptr %0, ptr %3, align 8
  store ptr %1, ptr %4, align 8
  %5 = load ptr, ptr %3, align 8
  %6 = getelementptr inbounds %"class.nix::StorePath", ptr %5, i32 0, i32 0
  %7 = load ptr, ptr %4, align 8
  %8 = getelementptr inbounds %"class.nix::StorePath", ptr %7, i32 0, i32 0
  call void @_ZNSt7__cxx1112basic_stringIcSt11char_traitsIcESaIcEEC2ERKS4_(ptr noundef nonnull align 8 dereferenceable(32) %6, ptr noundef nonnull align 8 dereferenceable(32) %8)
  ret void
}

; Function Attrs: mustprogress nounwind uwtable
define linkonce_odr noundef nonnull align 8 dereferenceable(32) ptr @_ZNRSt8optionalIN3nix9StorePathEEdeEv(ptr noundef nonnull align 8 dereferenceable(40) %0) #2 comdat align 2 {
  %2 = alloca ptr, align 8
  store ptr %0, ptr %2, align 8
  %3 = load ptr, ptr %2, align 8
  %4 = call noundef nonnull align 8 dereferenceable(32) ptr @_ZNSt19_Optional_base_implIN3nix9StorePathESt14_Optional_baseIS1_Lb0ELb0EEE6_M_getEv(ptr noundef nonnull align 1 dereferenceable(1) %3) #1
  ret ptr %4
}

; Function Attrs: mustprogress nounwind uwtable
define linkonce_odr noundef zeroext i1 @_ZNKSt8optionalIN3nix9StorePathEEcvbEv(ptr noundef nonnull align 8 dereferenceable(40) %0) #2 comdat align 2 {
  %2 = alloca ptr, align 8
  store ptr %0, ptr %2, align 8
  %3 = load ptr, ptr %2, align 8
  %4 = call noundef zeroext i1 @_ZNKSt19_Optional_base_implIN3nix9StorePathESt14_Optional_baseIS1_Lb0ELb0EEE13_M_is_engagedEv(ptr noundef nonnull align 1 dereferenceable(1) %3) #1
  ret i1 %4
}

; Function Attrs: mustprogress uwtable
define void @_ZNK3nix11PackageInfo14requireDrvPathEv(ptr dead_on_unwind noalias writable sret(%"class.nix::StorePath") align 8 %0, ptr noundef nonnull align 8 dereferenceable(296) %1) #5 align 2 personality ptr @__gxx_personality_v0 {
  %3 = alloca ptr, align 8
  %4 = alloca ptr, align 8
  %5 = alloca %"class.std::optional.1", align 8
  %6 = alloca ptr, align 8
  %7 = alloca i32, align 4
  %8 = alloca i32, align 4
  %9 = alloca %"class.std::__cxx11::basic_string", align 8
  %10 = alloca %"class.std::allocator", align 1
  %11 = alloca i1, align 1
  store ptr %0, ptr %3, align 8
  store ptr %1, ptr %4, align 8
  %12 = load ptr, ptr %4, align 8
  call void @_ZNK3nix11PackageInfo12queryDrvPathEv(ptr dead_on_unwind writable sret(%"class.std::optional.1") align 8 %5, ptr noundef nonnull align 8 dereferenceable(296) %12)
  %13 = call noundef zeroext i1 @_ZNKSt8optionalIN3nix9StorePathEEcvbEv(ptr noundef nonnull align 8 dereferenceable(40) %5) #1
  br i1 %13, label %14, label %21

14:                                               ; preds = %2
  %15 = call noundef nonnull align 8 dereferenceable(32) ptr @_ZNRSt8optionalIN3nix9StorePathEEdeEv(ptr noundef nonnull align 8 dereferenceable(40) %5) #1
  invoke void @_ZN3nix9StorePathC2ERKS0_(ptr noundef nonnull align 8 dereferenceable(32) %0, ptr noundef nonnull align 8 dereferenceable(32) %15)
          to label %16 unwind label %17

16:                                               ; preds = %14
  store i32 1, ptr %8, align 4
  br label %22

17:                                               ; preds = %14
  %18 = landingpad { ptr, i32 }
          cleanup
  %19 = extractvalue { ptr, i32 } %18, 0
  store ptr %19, ptr %6, align 8
  %20 = extractvalue { ptr, i32 } %18, 1
  store i32 %20, ptr %7, align 4
  call void @_ZNSt8optionalIN3nix9StorePathEED2Ev(ptr noundef nonnull align 8 dereferenceable(40) %5) #1
  br label %41

21:                                               ; preds = %2
  store i32 0, ptr %8, align 4
  br label %22

22:                                               ; preds = %21, %16
  call void @_ZNSt8optionalIN3nix9StorePathEED2Ev(ptr noundef nonnull align 8 dereferenceable(40) %5) #1
  %23 = load i32, ptr %8, align 4
  switch i32 %23, label %46 [
    i32 0, label %24
    i32 1, label %40
  ]

24:                                               ; preds = %22
  store i1 true, ptr %11, align 1
  %25 = call ptr @__cxa_allocate_exception(i64 376) #1
  call void @_ZNSaIcEC1Ev(ptr noundef nonnull align 1 dereferenceable(1) %10) #1
  invoke void @_ZNSt7__cxx1112basic_stringIcSt11char_traitsIcESaIcEEC2IS3_EEPKcRKS3_(ptr noundef nonnull align 8 dereferenceable(32) %9, ptr noundef @.str.14, ptr noundef nonnull align 1 dereferenceable(1) %10)
          to label %26 unwind label %28

26:                                               ; preds = %24
  invoke void @_ZN3nix5ErrorCI2NS_9BaseErrorEIJEEERKNSt7__cxx1112basic_stringIcSt11char_traitsIcESaIcEEEDpRKT_(ptr noundef nonnull align 8 dereferenceable(376) %25, ptr noundef nonnull align 8 dereferenceable(32) %9)
          to label %27 unwind label %32

27:                                               ; preds = %26
  store i1 false, ptr %11, align 1
  invoke void @__cxa_throw(ptr %25, ptr @_ZTIN3nix5ErrorE, ptr @_ZN3nix5ErrorD2Ev) #23
          to label %46 unwind label %32

28:                                               ; preds = %24
  %29 = landingpad { ptr, i32 }
          cleanup
  %30 = extractvalue { ptr, i32 } %29, 0
  store ptr %30, ptr %6, align 8
  %31 = extractvalue { ptr, i32 } %29, 1
  store i32 %31, ptr %7, align 4
  br label %36

32:                                               ; preds = %27, %26
  %33 = landingpad { ptr, i32 }
          cleanup
  %34 = extractvalue { ptr, i32 } %33, 0
  store ptr %34, ptr %6, align 8
  %35 = extractvalue { ptr, i32 } %33, 1
  store i32 %35, ptr %7, align 4
  call void @_ZNSt7__cxx1112basic_stringIcSt11char_traitsIcESaIcEED2Ev(ptr noundef nonnull align 8 dereferenceable(32) %9) #1
  br label %36

36:                                               ; preds = %32, %28
  call void @_ZNSaIcED1Ev(ptr noundef nonnull align 1 dereferenceable(1) %10) #1
  %37 = load i1, ptr %11, align 1
  br i1 %37, label %38, label %39

38:                                               ; preds = %36
  call void @__cxa_free_exception(ptr %25) #1
  br label %39

39:                                               ; preds = %38, %36
  br label %41

40:                                               ; preds = %22
  ret void

41:                                               ; preds = %39, %17
  %42 = load ptr, ptr %6, align 8
  %43 = load i32, ptr %7, align 4
  %44 = insertvalue { ptr, i32 } poison, ptr %42, 0
  %45 = insertvalue { ptr, i32 } %44, i32 %43, 1
  resume { ptr, i32 } %45

46:                                               ; preds = %27, %22
  unreachable
}