; Function Attrs: mustprogress uwtable
define void @_ZNK3nix11PackageInfo14requireDrvPathEv(ptr dead_on_unwind noalias writable sret(%"class.nix::StorePath") align 8 %0, ptr noundef nonnull align 8 dereferenceable(296) %1) local_unnamed_addr #5 align 2 personality ptr @__gxx_personality_v0 {
  %3 = alloca %"class.std::optional.1", align 8
  %4 = alloca %"class.std::__cxx11::basic_string", align 8
  %5 = alloca %"class.std::allocator", align 1
  call void @_ZNK3nix11PackageInfo12queryDrvPathEv(ptr dead_on_unwind nonnull writable sret(%"class.std::optional.1") align 8 %3, ptr noundef nonnull align 8 dereferenceable(296) %1)
  %6 = getelementptr inbounds i8, ptr %3, i64 32
  %7 = load i8, ptr %6, align 8
  %8 = and i8 %7, 1
  %.not = icmp eq i8 %8, 0
  br i1 %.not, label %_ZNSt8optionalIN3nix9StorePathEED2Ev.exit, label %9

9:                                                ; preds = %2
  invoke void @_ZNSt7__cxx1112basic_stringIcSt11char_traitsIcESaIcEEC2ERKS4_(ptr noundef nonnull align 8 dereferenceable(32) %0, ptr noundef nonnull align 8 dereferenceable(32) %3)
          to label %_ZN3nix9StorePathC2ERKS0_.exit unwind label %10

10:                                               ; preds = %9
  %11 = landingpad { ptr, i32 }
          cleanup
  call void @_ZNSt8optionalIN3nix9StorePathEED2Ev(ptr noundef nonnull align 8 dereferenceable(40) %3) #28
  br label %28

_ZN3nix9StorePathC2ERKS0_.exit:                   ; preds = %9
  %.pre = load i8, ptr %6, align 8
  %.pre14 = and i8 %.pre, 1
  %12 = icmp eq i8 %.pre14, 0
  br i1 %12, label %27, label %13

13:                                               ; preds = %_ZN3nix9StorePathC2ERKS0_.exit
  store i8 0, ptr %6, align 8
  %14 = load ptr, ptr %3, align 8
  %15 = getelementptr inbounds i8, ptr %3, i64 16
  %16 = icmp eq ptr %14, %15
  br i1 %16, label %_ZNKSt7__cxx1112basic_stringIcSt11char_traitsIcESaIcEE11_M_is_localEv.exit.thread.i.i.i.i.i.i.i.i, label %_ZNKSt7__cxx1112basic_stringIcSt11char_traitsIcESaIcEE11_M_is_localEv.exit.i.i.i.i.i.i.i.i

_ZNKSt7__cxx1112basic_stringIcSt11char_traitsIcESaIcEE11_M_is_localEv.exit.thread.i.i.i.i.i.i.i.i: ; preds = %13
  %17 = getelementptr inbounds i8, ptr %3, i64 8
  %18 = load i64, ptr %17, align 8
  %19 = icmp ult i64 %18, 16
  call void @llvm.assume(i1 %19)
  br label %_ZNSt22_Optional_payload_baseIN3nix9StorePathEE10_M_destroyEv.exit.i.i.i.i

_ZNKSt7__cxx1112basic_stringIcSt11char_traitsIcESaIcEE11_M_is_localEv.exit.i.i.i.i.i.i.i.i: ; preds = %13
  call void @_ZdlPv(ptr noundef %14) #30
  br label %_ZNSt22_Optional_payload_baseIN3nix9StorePathEE10_M_destroyEv.exit.i.i.i.i

_ZNSt22_Optional_payload_baseIN3nix9StorePathEE10_M_destroyEv.exit.i.i.i.i: ; preds = %_ZNKSt7__cxx1112basic_stringIcSt11char_traitsIcESaIcEE11_M_is_localEv.exit.i.i.i.i.i.i.i.i, %_ZNKSt7__cxx1112basic_stringIcSt11char_traitsIcESaIcEE11_M_is_localEv.exit.thread.i.i.i.i.i.i.i.i
  call void @_ZNSaIcED2Ev(ptr noundef nonnull align 1 dereferenceable(1) %3) #28
  br label %27

_ZNSt8optionalIN3nix9StorePathEED2Ev.exit:        ; preds = %2
  %20 = call ptr @__cxa_allocate_exception(i64 376) #28
  call void @_ZNSaIcEC1Ev(ptr noundef nonnull align 1 dereferenceable(1) %5) #28
  invoke void @_ZNSt7__cxx1112basic_stringIcSt11char_traitsIcESaIcEEC2IS3_EEPKcRKS3_(ptr noundef nonnull align 8 dereferenceable(32) %4, ptr noundef nonnull @.str.14, ptr noundef nonnull align 1 dereferenceable(1) %5)
          to label %21 unwind label %.thread

21:                                               ; preds = %_ZNSt8optionalIN3nix9StorePathEED2Ev.exit
  invoke void @_ZN3nix5ErrorCI2NS_9BaseErrorEIJEEERKNSt7__cxx1112basic_stringIcSt11char_traitsIcESaIcEEEDpRKT_(ptr noundef nonnull align 8 dereferenceable(376) %20, ptr noundef nonnull align 8 dereferenceable(32) %4)
          to label %22 unwind label %24

22:                                               ; preds = %21
  invoke void @__cxa_throw(ptr nonnull %20, ptr nonnull @_ZTIN3nix5ErrorE, ptr nonnull @_ZN3nix5ErrorD2Ev) #29
          to label %29 unwind label %24

.thread:                                          ; preds = %_ZNSt8optionalIN3nix9StorePathEED2Ev.exit
  %23 = landingpad { ptr, i32 }
          cleanup
  call void @_ZNSaIcED1Ev(ptr noundef nonnull align 1 dereferenceable(1) %5) #28
  br label %26

24:                                               ; preds = %21, %22
  %.0 = phi i1 [ false, %22 ], [ true, %21 ]
  %25 = landingpad { ptr, i32 }
          cleanup
  call void @_ZNSt7__cxx1112basic_stringIcSt11char_traitsIcESaIcEED2Ev(ptr noundef nonnull align 8 dereferenceable(32) %4) #28
  call void @_ZNSaIcED1Ev(ptr noundef nonnull align 1 dereferenceable(1) %5) #28
  br i1 %.0, label %26, label %28

26:                                               ; preds = %.thread, %24
  %.pn13 = phi { ptr, i32 } [ %23, %.thread ], [ %25, %24 ]
  call void @__cxa_free_exception(ptr %20) #28
  br label %28

27:                                               ; preds = %_ZN3nix9StorePathC2ERKS0_.exit, %_ZNSt22_Optional_payload_baseIN3nix9StorePathEE10_M_destroyEv.exit.i.i.i.i
  ret void

28:                                               ; preds = %24, %26, %10
  %.pn.pn = phi { ptr, i32 } [ %.pn13, %26 ], [ %25, %24 ], [ %11, %10 ]
  resume { ptr, i32 } %.pn.pn

29:                                               ; preds = %22
  unreachable
}